; Function Attrs: mustprogress nofree norecurse nounwind willreturn uwtable
define void @_ZN14rv32_low_csr_tC2EP11processor_tmSt10shared_ptrI5csr_tE(ptr noundef nonnull writeonly align 8 captures(none) dereferenceable(56) initializes((0, 37), (40, 56)) %0, ptr noundef %1, i64 noundef %2, ptr noundef readonly captures(none) %3) unnamed_addr #16 align 2 personality ptr @__gxx_personality_v0 {
  %5 = getelementptr inbounds nuw i8, ptr %0, i64 8
  store ptr %1, ptr %5, align 8, !tbaa !6
  %6 = getelementptr inbounds nuw i8, ptr %0, i64 16
  %7 = getelementptr inbounds nuw i8, ptr %1, i64 248
  store ptr %7, ptr %6, align 8, !tbaa !15
  %8 = getelementptr inbounds nuw i8, ptr %0, i64 24
  store i64 %2, ptr %8, align 8, !tbaa !16
  %9 = getelementptr inbounds nuw i8, ptr %0, i64 32
  %10 = trunc i64 %2 to i32
  %11 = lshr i32 %10, 8
  %12 = and i32 %11, 3
  store i32 %12, ptr %9, align 8, !tbaa !17
  %13 = getelementptr inbounds nuw i8, ptr %0, i64 36
  %14 = and i64 %2, 3072
  %15 = icmp eq i64 %14, 3072
  %16 = zext i1 %15 to i8
  store i8 %16, ptr %13, align 4, !tbaa !18
  store ptr getelementptr inbounds nuw inrange(-16, 48) (i8, ptr @_ZTV14rv32_low_csr_t, i64 16), ptr %0, align 8, !tbaa !3
  %17 = getelementptr inbounds nuw i8, ptr %0, i64 40
  %18 = load ptr, ptr %3, align 8, !tbaa !176
  store ptr %18, ptr %17, align 8, !tbaa !176
  %19 = getelementptr inbounds nuw i8, ptr %0, i64 48
  %20 = getelementptr inbounds nuw i8, ptr %3, i64 8
  %21 = load ptr, ptr %20, align 8, !tbaa !177
  store ptr %21, ptr %19, align 8, !tbaa !177
  %.not.i.i.i = icmp eq ptr %21, null
  br i1 %.not.i.i.i, label %_ZNSt10shared_ptrI5csr_tEC2ERKS1_.exit, label %22

22:                                               ; preds = %4
  %23 = getelementptr inbounds nuw i8, ptr %21, i64 8
  %24 = load i8, ptr @__libc_single_threaded, align 1, !tbaa !150
  %.not.i.i.i.i = icmp eq i8 %24, 0
  br i1 %.not.i.i.i.i, label %28, label %25

25:                                               ; preds = %22
  %26 = load i32, ptr %23, align 4, !tbaa !178
  %27 = add nsw i32 %26, 1
  store i32 %27, ptr %23, align 4, !tbaa !178
  br label %_ZNSt10shared_ptrI5csr_tEC2ERKS1_.exit

28:                                               ; preds = %22
  %29 = atomicrmw volatile add ptr %23, i32 1 acq_rel, align 4
  br label %_ZNSt10shared_ptrI5csr_tEC2ERKS1_.exit

_ZNSt10shared_ptrI5csr_tEC2ERKS1_.exit:           ; preds = %4, %25, %28
  ret void
}